; Function Attrs: nounwind uwtable
define internal ptr @event_to_env(ptr nocapture noundef readonly %0, ptr noundef %1, ptr noundef %2) #0 {
  %4 = load ptr, ptr %0, align 8
  %5 = load ptr, ptr %4, align 8
  %6 = getelementptr inbounds i8, ptr %5, i64 1336
  %7 = load ptr, ptr %6, align 8
  %8 = tail call ptr %7(ptr noundef nonnull %4, ptr noundef %1) #6
  %9 = load ptr, ptr %4, align 8
  %10 = getelementptr inbounds i8, ptr %9, i64 120
  %11 = load ptr, ptr %10, align 8
  %12 = tail call ptr %11(ptr noundef nonnull %4) #6
  %.not = icmp eq ptr %12, null
  br i1 %.not, label %13, label %35

13:                                               ; preds = %3
  %14 = load ptr, ptr %4, align 8
  %15 = getelementptr inbounds i8, ptr %14, i64 416
  %16 = load ptr, ptr %15, align 8
  %17 = getelementptr inbounds i8, ptr %0, i64 8
  %18 = load ptr, ptr %17, align 8
  %19 = getelementptr inbounds i8, ptr %0, i64 24
  %20 = load ptr, ptr %19, align 8
  %21 = getelementptr inbounds i8, ptr %0, i64 16
  %22 = load ptr, ptr %21, align 8
  %23 = ptrtoint ptr %2 to i64
  %24 = tail call i64 (ptr, ptr, ptr, ...) %16(ptr noundef nonnull %4, ptr noundef %18, ptr noundef %20, ptr noundef %22, ptr noundef %8, i64 noundef %23) #6
  %25 = load ptr, ptr %4, align 8
  %26 = getelementptr inbounds i8, ptr %25, i64 120
  %27 = load ptr, ptr %26, align 8
  %28 = tail call ptr %27(ptr noundef nonnull %4) #6
  %.not19 = icmp eq ptr %28, null
  br i1 %.not19, label %33, label %29

29:                                               ; preds = %13
  %30 = load ptr, ptr %4, align 8
  %31 = getelementptr inbounds i8, ptr %30, i64 136
  %32 = load ptr, ptr %31, align 8
  tail call void %32(ptr noundef nonnull %4) #6
  br label %35

33:                                               ; preds = %13
  %34 = inttoptr i64 %24 to ptr
  br label %35

35:                                               ; preds = %3, %33, %29
  %.0 = phi ptr [ null, %29 ], [ %34, %33 ], [ null, %3 ]
  ret ptr %.0
}